(dp1
S'output'
p2
S'missing "pass" in view'
p3
sS'layer'
p4
S'ParserContainer'
p5
sS'code'
p6
S"if notebooks:\n    response.write('\\r\\n\\t', escape=False)\n    for notebook in notebooks:\n        response.write('\\r\\n\\t\\t', escape=False)\n        response.write(notebook.title)\n        response.write('\\r\\n\\t', escape=False)\n        pass\n    response.write('\\r\\n', escape=False)"
p7
sS'snapshot'
p8
(dp9
S'exception'
p10
(dp11
S'__module__'
p12
S"'gluon.rocket'"
p13
sS'__getslice__'
p14
S"<method-wrapper '__getslice__' of SocketClosed object>"
p15
sS'__str__'
p16
S"<method-wrapper '__str__' of SocketClosed object>"
p17
sS'__reduce__'
p18
S'<built-in method __reduce__ of SocketClosed object>'
p19
sS'__dict__'
p20
S'{}'
p21
sS'__sizeof__'
p22
S'<built-in method __sizeof__ of SocketClosed object>'
p23
sS'__weakref__'
p24
S'None'
p25
sS'message'
p26
S"'Client closed socket.'"
p27
sS'__init__'
p28
S"<method-wrapper '__init__' of SocketClosed object>"
p29
sS'__setattr__'
p30
S"<method-wrapper '__setattr__' of SocketClosed object>"
p31
sS'__reduce_ex__'
p32
S'<built-in method __reduce_ex__ of SocketClosed object>'
p33
sS'__new__'
p34
S'<built-in method __new__ of type object>'
p35
sS'__format__'
p36
S'<built-in method __format__ of SocketClosed object>'
p37
sS'__class__'
p38
S"<class 'gluon.rocket.SocketClosed'>"
p39
sS'__doc__'
p40
S"'Exception for when a socket is closed by the client.'"
p41
sS'__getitem__'
p42
S"<method-wrapper '__getitem__' of SocketClosed object>"
p43
sS'__setstate__'
p44
S'<built-in method __setstate__ of SocketClosed object>'
p45
sS'__getattribute__'
p46
S"<method-wrapper '__getattribute__' of SocketClosed object>"
p47
sS'args'
p48
S"('Client closed socket.',)"
p49
sS'__subclasshook__'
p50
S'<built-in method __subclasshook__ of type object>'
p51
sS'__unicode__'
p52
S'<built-in method __unicode__ of SocketClosed object>'
p53
sS'__delattr__'
p54
S"<method-wrapper '__delattr__' of SocketClosed object>"
p55
sS'__repr__'
p56
S"<method-wrapper '__repr__' of SocketClosed object>"
p57
sS'__hash__'
p58
S"<method-wrapper '__hash__' of SocketClosed object>"
p59
ssS'evalue'
p60
S'Client closed socket.'
p61
sS'frames'
p62
(lp63
(dp64
S'file'
p65
S'C:\\Users\\Sumani\\Downloads\\web2py_win\\web2py\\gluon\\rocket.py'
p66
sS'dump'
p67
(dp68
S'self'
p69
S'<WSGIWorker(Thread-4, started daemon 7124)>'
p70
sS'conn'
p71
S'<gluon.rocket.Connection object>'
p72
sS'self.run_app'
p73
S'<bound method WSGIWorker.run_app of <WSGIWorker(Thread-4, started daemon 7124)>>'
p74
ssS'lnum'
p75
I1319
sS'lines'
p76
(dp77
I1314
S'            # Enter connection serve loop'
p78
sI1315
S'            while True:'
p79
sI1316
S'                if __debug__:'
p80
sI1317
S"                    self.err_log.debug('Serving a request')"
p81
sI1318
S'                try:'
p82
sI1319
S'                    self.run_app(conn)'
p83
sI1320
S'                except:'
p84
sI1321
S'                    exc = sys.exc_info()'
p85
sI1322
S'                    handled = self._handleError(*exc)'
p86
sI1323
S'                    if handled:'
p87
ssS'call'
p88
S'(self=<WSGIWorker(Thread-4, started daemon 7124)>)'
p89
sS'func'
p90
S'run'
p91
sa(dp92
g65
S'C:\\Users\\Sumani\\Downloads\\web2py_win\\web2py\\gluon\\rocket.py'
p93
sg67
(dp94
S'self'
p95
S'<WSGIWorker(Thread-4, started daemon 7124)>'
p96
sS'self.environ'
p97
S"{'HTTP_ACCEPT': 'text/html,application/xhtml+xml,application/xml;q=0.9,image/webp,image/apng,*/*;q=0.8', 'HTTP_ACCEPT_ENCODING': 'gzip, deflate, br', 'HTTP_ACCEPT_LANGUAGE': 'en-US,en;q=0.9', 'HTTP_CACHE_CONTROL': 'max-age=0', 'HTTP_CONNECTION': 'keep-alive', 'HTTP_COOKIE': 'session_id_admin=127.0.0.1-e1e8c3ff-ccbc-4663-a8...es=127.0.0.1-6e369022-06fd-45b1-b738-9f36ffd5ba7b', 'HTTP_HOST': '127.0.0.1:8000', 'HTTP_UPGRADE_INSECURE_REQUESTS': '1', 'HTTP_USER_AGENT': 'Mozilla/5.0 (Windows NT 10.0; Win64; x64) AppleW...L, like Gecko) Chrome/69.0.3497.100 Safari/537.36', 'PATH_INFO': '/Notebookapp/default/seeNotebooks', ...}"
p98
sS'sock_file'
p99
S'<socket._fileobject object>'
p100
sS'environ'
p101
S'undefined'
p102
sS'self.build_environ'
p103
S'<bound method WSGIWorker.build_environ of <WSGIWorker(Thread-4, started daemon 7124)>>'
p104
sS'conn'
p105
S'<gluon.rocket.Connection object>'
p106
ssg75
I1812
sg76
(dp107
I1807
S'        else:'
p108
sI1808
S'            sock_file = conn.makefile(BUF_SIZE)'
p109
sI1809
S''
sI1810
S'        try:'
p110
sI1811
S'            # Read the headers and build our WSGI environment'
p111
sI1812
S'            self.environ = environ = self.build_environ(sock_file, conn)'
p112
sI1813
S''
sI1814
S'            # Handle 100 Continue'
p113
sI1815
S"            if environ.get('HTTP_EXPECT', '') == '100-continue':"
p114
sI1816
S"                res = environ['SERVER_PROTOCOL'] + ' 100 Continue\\r\\n\\r\\n'"
p115
ssg88
S'(self=<WSGIWorker(Thread-4, started daemon 7124)>, conn=<gluon.rocket.Connection object>)'
p116
sg90
S'run_app'
p117
sa(dp118
g65
S'C:\\Users\\Sumani\\Downloads\\web2py_win\\web2py\\gluon\\rocket.py'
p119
sg67
(dp120
S'sock_file'
p121
S'<socket._fileobject object>'
p122
sS'self.read_request_line'
p123
S'<bound method WSGIWorker.read_request_line of <WSGIWorker(Thread-4, started daemon 7124)>>'
p124
sS'self'
p125
S'<WSGIWorker(Thread-4, started daemon 7124)>'
p126
sS'request'
p127
g102
ssg75
I1632
sg76
(dp128
I1632
S'        request = self.read_request_line(sock_file)'
p129
sI1633
S''
sI1634
S'        # Copy the Base Environment'
p130
sI1635
S'        environ = self.base_environ.copy()'
p131
sI1636
S''
sI1627
S'                                      "wsgiorg.futures": executor.futures})'
p132
sI1628
S''
sI1629
S'    def build_environ(self, sock_file, conn):'
p133
sI1630
S'        """ Build the execution environment. """'
p134
sI1631
S'        # Grab the request line'
p135
ssg88
S'(self=<WSGIWorker(Thread-4, started daemon 7124)>, sock_file=<socket._fileobject object>, conn=<gluon.rocket.Connection object>)'
p136
sg90
S'build_environ'
p137
sa(dp138
g65
S'C:\\Users\\Sumani\\Downloads\\web2py_win\\web2py\\gluon\\rocket.py'
p139
sg67
(dp140
S'global SocketClosed'
p141
S"<class 'gluon.rocket.SocketClosed'>"
p142
ssg75
I1395
sg76
(dp143
I1390
S''
sI1391
S'        if not d:'
p144
sI1392
S'            if __debug__:'
p145
sI1393
S'                self.err_log.debug('
p146
sI1394
S"                    'Client did not send a recognizable request.')"
p147
sI1395
S"            raise SocketClosed('Client closed socket.')"
p148
sI1396
S''
sI1397
S'        self.request_line = d'
p149
sI1398
S''
sI1399
S"        # NOTE: I've replaced the traditional method of procedurally breaking"
p150
ssg88
S'(self=<WSGIWorker(Thread-4, started daemon 7124)>, sock_file=<socket._fileobject object>)'
p151
sg90
S'read_request_line'
p152
sasS'pyver'
p153
S'Python 2.7.9: C:\\Users\\Sumani\\Downloads\\web2py_win\\web2py\\web2py.exe (prefix: )'
p154
sS'etype'
p155
S"<class 'gluon.rocket.SocketClosed'>"
p156
sS'date'
p157
S'Wed Oct 10 16:40:04 2018'
p158
sS'locals'
p159
(dp160
S'sock_file'
p161
S'<socket._fileobject object>'
p162
sS'self'
p163
S'<WSGIWorker(Thread-4, started daemon 7124)>'
p164
sS'd'
S"''"
p165
sssS'traceback'
p166
S'Traceback (most recent call last):\n  File "C:\\Users\\Sumani\\Downloads\\web2py_win\\web2py\\gluon\\rocket.py", line 1319, in run\n    self.run_app(conn)\n  File "C:\\Users\\Sumani\\Downloads\\web2py_win\\web2py\\gluon\\rocket.py", line 1812, in run_app\n    self.environ = environ = self.build_environ(sock_file, conn)\n  File "C:\\Users\\Sumani\\Downloads\\web2py_win\\web2py\\gluon\\rocket.py", line 1632, in build_environ\n    request = self.read_request_line(sock_file)\n  File "C:\\Users\\Sumani\\Downloads\\web2py_win\\web2py\\gluon\\rocket.py", line 1395, in read_request_line\n    raise SocketClosed(\'Client closed socket.\')\nSocketClosed: Client closed socket.\n'
p167
s.